target datalayout = "e-m:e-p270:32:32-p271:32:32-p272:64:64-i64:64-i128:128-f80:128-n8:16:32:64-S128"
target triple = "x86_64-pc-linux-gnu"

@_ZL8trFnName = internal constant [3 x ptr] [ptr @.str.3, ptr @.str.4, ptr null], align 16
@_ZL11trConvNames = internal constant [9 x ptr] [ptr @.str.5, ptr @.str.6, ptr @.str.7, ptr @.str.8, ptr @.str.9, ptr @.str.10, ptr @.str.11, ptr @.str.12, ptr null], align 16
@_ZL11trCollNames = internal constant [10 x ptr] [ptr @.str.13, ptr @.str.14, ptr @.str.15, ptr @.str.16, ptr @.str.17, ptr @.str.18, ptr @.str.19, ptr @.str.20, ptr @.str.21, ptr null], align 16
@_ZL14trResDataNames = internal constant [5 x ptr] [ptr @.str.22, ptr @.str.23, ptr @.str.24, ptr @.str.25, ptr null], align 16
@.str.1 = private unnamed_addr constant [30 x i8] c"[BOGUS Trace Function Number]\00", align 1

; Function Attrs: mustprogress nounwind uwtable
define ptr @utrace_functionName_77(i32 noundef %0) #4 {
  %2 = alloca ptr, align 8
  %3 = alloca i32, align 4
  store i32 %0, ptr %3, align 4, !tbaa !3
  %4 = load i32, ptr %3, align 4, !tbaa !3
  %5 = icmp sle i32 0, %4
  br i1 %5, label %6, label %14

6:                                                ; preds = %1
  %7 = load i32, ptr %3, align 4, !tbaa !3
  %8 = icmp slt i32 %7, 2
  br i1 %8, label %9, label %14

9:                                                ; preds = %6
  %10 = load i32, ptr %3, align 4, !tbaa !3
  %11 = sext i32 %10 to i64
  %12 = getelementptr inbounds [3 x ptr], ptr @_ZL8trFnName, i64 0, i64 %11
  %13 = load ptr, ptr %12, align 8, !tbaa !9
  store ptr %13, ptr %2, align 8
  br label %51

14:                                               ; preds = %6, %1
  %15 = load i32, ptr %3, align 4, !tbaa !3
  %16 = icmp sle i32 4096, %15
  br i1 %16, label %17, label %26

17:                                               ; preds = %14
  %18 = load i32, ptr %3, align 4, !tbaa !3
  %19 = icmp slt i32 %18, 4104
  br i1 %19, label %20, label %26

20:                                               ; preds = %17
  %21 = load i32, ptr %3, align 4, !tbaa !3
  %22 = sub nsw i32 %21, 4096
  %23 = sext i32 %22 to i64
  %24 = getelementptr inbounds [9 x ptr], ptr @_ZL11trConvNames, i64 0, i64 %23
  %25 = load ptr, ptr %24, align 8, !tbaa !9
  store ptr %25, ptr %2, align 8
  br label %51

26:                                               ; preds = %17, %14
  %27 = load i32, ptr %3, align 4, !tbaa !3
  %28 = icmp sle i32 8192, %27
  br i1 %28, label %29, label %38

29:                                               ; preds = %26
  %30 = load i32, ptr %3, align 4, !tbaa !3
  %31 = icmp slt i32 %30, 8201
  br i1 %31, label %32, label %38

32:                                               ; preds = %29
  %33 = load i32, ptr %3, align 4, !tbaa !3
  %34 = sub nsw i32 %33, 8192
  %35 = sext i32 %34 to i64
  %36 = getelementptr inbounds [10 x ptr], ptr @_ZL11trCollNames, i64 0, i64 %35
  %37 = load ptr, ptr %36, align 8, !tbaa !9
  store ptr %37, ptr %2, align 8
  br label %51

38:                                               ; preds = %29, %26
  %39 = load i32, ptr %3, align 4, !tbaa !3
  %40 = icmp sle i32 12288, %39
  br i1 %40, label %41, label %50

41:                                               ; preds = %38
  %42 = load i32, ptr %3, align 4, !tbaa !3
  %43 = icmp slt i32 %42, 12292
  br i1 %43, label %44, label %50

44:                                               ; preds = %41
  %45 = load i32, ptr %3, align 4, !tbaa !3
  %46 = sub nsw i32 %45, 12288
  %47 = sext i32 %46 to i64
  %48 = getelementptr inbounds [5 x ptr], ptr @_ZL14trResDataNames, i64 0, i64 %47
  %49 = load ptr, ptr %48, align 8, !tbaa !9
  store ptr %49, ptr %2, align 8
  br label %51

50:                                               ; preds = %41, %38
  store ptr @.str.1, ptr %2, align 8
  br label %51

51:                                               ; preds = %50, %44, %32, %20, %9
  %52 = load ptr, ptr %2, align 8
  ret ptr %52
}