; Function Attrs: mustprogress nofree norecurse nosync nounwind willreturn memory(none) uwtable
define ptr @utrace_functionName_77(i32 noundef %0) local_unnamed_addr #10 {
  %or.cond = icmp ult i32 %0, 2
  br i1 %or.cond, label %2, label %6

2:                                                ; preds = %1
  %3 = zext nneg i32 %0 to i64
  %4 = getelementptr inbounds nuw [3 x ptr], ptr @_ZL8trFnName, i64 0, i64 %3
  %5 = load ptr, ptr %4, align 8, !tbaa !13
  br label %26

6:                                                ; preds = %1
  %7 = and i32 %0, -8
  %or.cond3 = icmp eq i32 %7, 4096
  br i1 %or.cond3, label %8, label %13

8:                                                ; preds = %6
  %9 = add nsw i32 %0, -4096
  %10 = zext nneg i32 %9 to i64
  %11 = getelementptr inbounds nuw [9 x ptr], ptr @_ZL11trConvNames, i64 0, i64 %10
  %12 = load ptr, ptr %11, align 8, !tbaa !13
  br label %26

13:                                               ; preds = %6
  %14 = add i32 %0, -8192
  %or.cond5 = icmp ult i32 %14, 9
  br i1 %or.cond5, label %15, label %19

15:                                               ; preds = %13
  %16 = zext nneg i32 %14 to i64
  %17 = getelementptr inbounds nuw [10 x ptr], ptr @_ZL11trCollNames, i64 0, i64 %16
  %18 = load ptr, ptr %17, align 8, !tbaa !13
  br label %26

19:                                               ; preds = %13
  %20 = and i32 %0, -4
  %or.cond7 = icmp eq i32 %20, 12288
  br i1 %or.cond7, label %21, label %26

21:                                               ; preds = %19
  %22 = add nsw i32 %0, -12288
  %23 = zext nneg i32 %22 to i64
  %24 = getelementptr inbounds nuw [5 x ptr], ptr @_ZL14trResDataNames, i64 0, i64 %23
  %25 = load ptr, ptr %24, align 8, !tbaa !13
  br label %26

26:                                               ; preds = %19, %21, %15, %8, %2
  %.0 = phi ptr [ %5, %2 ], [ %12, %8 ], [ %18, %15 ], [ %25, %21 ], [ @.str.1, %19 ]
  ret ptr %.0
}